target datalayout = "e-m:e-p270:32:32-p271:32:32-p272:64:64-i64:64-i128:128-f80:128-n8:16:32:64-S128"
target triple = "x86_64-pc-linux-gnu"

%"struct.std::_Rb_tree_header" = type { %"struct.std::_Rb_tree_node_base", i64 }
%"struct.std::_Rb_tree_node_base" = type { i32, ptr, ptr, ptr }
%"class.vcg::Box3" = type { %"class.vcg::Point3", %"class.vcg::Point3" }
%"class.vcg::Point3" = type { [3 x float] }
%"class.vcg::Matrix44" = type { %"struct.std::array.122" }
%"struct.std::array.122" = type { [16 x float] }
%class.QList.149 = type { %union.anon.151 }
%union.anon.151 = type { %struct.QListData }
%struct.QListData = type { ptr }
%class.QList = type { %union.anon.148 }
%union.anon.148 = type { %struct.QListData }
%class.DecorateRasterProjPlugin = type { %class.QObject, %class.DecoratePlugin.base, %"class.glw::Context", i8, %"class.vcg::Box3", %class.QMap, ptr, ptr, %"class.vcg::Matrix44", %"class.vcg::Matrix44", %"class.vcg::Matrix44", %"class.glw::detail::ObjectSharedPointer", %"class.glw::detail::ObjectSharedPointer", %"class.glw::detail::ObjectSharedPointer.171", %class.MeshLabPlugin }
%class.QObject = type { ptr, %class.QScopedPointer }
%class.QScopedPointer = type { ptr }
%class.DecoratePlugin.base = type { %class.MeshLabPluginLogger, %class.QList, %class.QList.149 }
%class.MeshLabPluginLogger = type { ptr, ptr }
%"class.glw::Context" = type { ptr, i8, i32, i32, i32, %"class.std::map.152", %"class.std::map.160" }
%"class.std::map.152" = type { %"class.std::_Rb_tree.153" }
%"class.std::_Rb_tree.153" = type { %"struct.std::_Rb_tree<glw::Object *, std::pair<glw::Object *const, glw::detail::RefCountedObject<glw::Object, glw::detail::ObjectDeleter, glw::detail::NoType> *>, std::_Select1st<std::pair<glw::Object *const, glw::detail::RefCountedObject<glw::Object, glw::detail::ObjectDeleter, glw::detail::NoType> *>>, std::less<glw::Object *>>::_Rb_tree_impl" }
%"struct.std::_Rb_tree<glw::Object *, std::pair<glw::Object *const, glw::detail::RefCountedObject<glw::Object, glw::detail::ObjectDeleter, glw::detail::NoType> *>, std::_Select1st<std::pair<glw::Object *const, glw::detail::RefCountedObject<glw::Object, glw::detail::ObjectDeleter, glw::detail::NoType> *>>, std::less<glw::Object *>>::_Rb_tree_impl" = type { %"struct.std::_Rb_tree_key_compare.157", %"struct.std::_Rb_tree_header" }
%"struct.std::_Rb_tree_key_compare.157" = type { %"struct.std::less.158" }
%"struct.std::less.158" = type { i8 }
%"class.std::map.160" = type { %"class.std::_Rb_tree.161" }
%"class.std::_Rb_tree.161" = type { %"struct.std::_Rb_tree<std::pair<unsigned int, int>, std::pair<const std::pair<unsigned int, int>, glw::detail::RefCountedObject<glw::BoundObject, glw::detail::DefaultDeleter<glw::BoundObject>, glw::detail::NoType> *>, std::_Select1st<std::pair<const std::pair<unsigned int, int>, glw::detail::RefCountedObject<glw::BoundObject, glw::detail::DefaultDeleter<glw::BoundObject>, glw::detail::NoType> *>>, std::less<std::pair<unsigned int, int>>>::_Rb_tree_impl" }
%"struct.std::_Rb_tree<std::pair<unsigned int, int>, std::pair<const std::pair<unsigned int, int>, glw::detail::RefCountedObject<glw::BoundObject, glw::detail::DefaultDeleter<glw::BoundObject>, glw::detail::NoType> *>, std::_Select1st<std::pair<const std::pair<unsigned int, int>, glw::detail::RefCountedObject<glw::BoundObject, glw::detail::DefaultDeleter<glw::BoundObject>, glw::detail::NoType> *>>, std::less<std::pair<unsigned int, int>>>::_Rb_tree_impl" = type { %"struct.std::_Rb_tree_key_compare.165", %"struct.std::_Rb_tree_header" }
%"struct.std::_Rb_tree_key_compare.165" = type { %"struct.std::less.166" }
%"struct.std::less.166" = type { i8 }
%class.QMap = type { ptr }
%"class.glw::detail::ObjectSharedPointer" = type { %"class.glw::detail::ObjectSharedPointer.168" }
%"class.glw::detail::ObjectSharedPointer.168" = type { %"class.glw::detail::ObjectSharedPointer.169" }
%"class.glw::detail::ObjectSharedPointer.169" = type { %"class.glw::detail::ObjectSharedPointer.170" }
%"class.glw::detail::ObjectSharedPointer.170" = type { ptr }
%"class.glw::detail::ObjectSharedPointer.171" = type { %"class.glw::detail::ObjectSharedPointer.170" }
%class.MeshLabPlugin = type { ptr, i8, %class.QFileInfo }
%class.QFileInfo = type { %class.QSharedDataPointer }
%class.QSharedDataPointer = type { ptr }

; Function Attrs: mustprogress uwtable
define void @_ZN24DecorateRasterProjPlugin19updateCurrentRasterER12MeshDocumentP10QGLContextP26MLSceneGLSharedDataContext(ptr noundef nonnull align 8 dereferenceable(440) %0, ptr noundef nonnull align 8 dereferenceable(192) %1, ptr noundef %2, ptr noundef %3) #5 align 2 {
  %5 = alloca ptr, align 8
  %6 = alloca ptr, align 8
  %7 = alloca ptr, align 8
  %8 = alloca ptr, align 8
  store ptr %0, ptr %5, align 8
  store ptr %1, ptr %6, align 8
  store ptr %2, ptr %7, align 8
  store ptr %3, ptr %8, align 8
  %9 = load ptr, ptr %5, align 8
  %10 = load ptr, ptr %6, align 8
  %11 = call noundef ptr @_ZN12MeshDocument2rmEv(ptr noundef nonnull align 8 dereferenceable(192) %10)
  %12 = getelementptr inbounds %class.DecorateRasterProjPlugin, ptr %9, i32 0, i32 7
  %13 = load ptr, ptr %12, align 8
  %14 = icmp eq ptr %11, %13
  br i1 %14, label %15, label %16

15:                                               ; preds = %4
  br label %22

16:                                               ; preds = %4
  %17 = load ptr, ptr %6, align 8
  %18 = call noundef ptr @_ZN12MeshDocument2rmEv(ptr noundef nonnull align 8 dereferenceable(192) %17)
  %19 = getelementptr inbounds %class.DecorateRasterProjPlugin, ptr %9, i32 0, i32 7
  store ptr %18, ptr %19, align 8
  call void @_ZN24DecorateRasterProjPlugin18updateColorTextureEv(ptr noundef nonnull align 8 dereferenceable(440) %9)
  call void @_ZN24DecorateRasterProjPlugin28updateShadowProjectionMatrixEv(ptr noundef nonnull align 8 dereferenceable(440) %9)
  %20 = load ptr, ptr %7, align 8
  %21 = load ptr, ptr %8, align 8
  call void @_ZN24DecorateRasterProjPlugin18updateDepthTextureEP10QGLContextP26MLSceneGLSharedDataContext(ptr noundef nonnull align 8 dereferenceable(440) %9, ptr noundef %20, ptr noundef %21)
  br label %22

22:                                               ; preds = %16, %15
  ret void
}