; Function Attrs: mustprogress uwtable
define void @_ZN24DecorateRasterProjPlugin19updateCurrentRasterER12MeshDocumentP10QGLContextP26MLSceneGLSharedDataContext(ptr noundef nonnull align 8 dereferenceable(440) %0, ptr noundef nonnull align 8 dereferenceable(192) %1, ptr noundef %2, ptr noundef %3) local_unnamed_addr #9 align 2 {
  %5 = tail call noundef ptr @_ZN12MeshDocument2rmEv(ptr noundef nonnull align 8 dereferenceable(192) %1)
  %6 = getelementptr inbounds i8, ptr %0, i64 216
  %7 = load ptr, ptr %6, align 8
  %8 = icmp eq ptr %5, %7
  br i1 %8, label %11, label %9

9:                                                ; preds = %4
  %10 = tail call noundef ptr @_ZN12MeshDocument2rmEv(ptr noundef nonnull align 8 dereferenceable(192) %1)
  store ptr %10, ptr %6, align 8
  tail call void @_ZN24DecorateRasterProjPlugin18updateColorTextureEv(ptr noundef nonnull align 8 dereferenceable(440) %0)
  tail call void @_ZN24DecorateRasterProjPlugin28updateShadowProjectionMatrixEv(ptr noundef nonnull align 8 dereferenceable(440) %0)
  tail call void @_ZN24DecorateRasterProjPlugin18updateDepthTextureEP10QGLContextP26MLSceneGLSharedDataContext(ptr noundef nonnull align 8 dereferenceable(440) %0, ptr noundef %2, ptr noundef %3)
  br label %11

11:                                               ; preds = %4, %9
  ret void
}